target datalayout = "e-m:e-p270:32:32-p271:32:32-p272:64:64-i64:64-i128:128-f80:128-n8:16:32:64-S128"
target triple = "x86_64-pc-linux-gnu"

%"class.sat::literal" = type { i32 }
%class.symbol = type { ptr }
%"struct.state_graph::state_pp" = type { ptr, ptr }
%"class.smt::seq_regex" = type <{ ptr, ptr, ptr, %class.vector, %class.ptr_addr_map, %class.ref_vector, %class.state_graph, i32, [4 x i8] }>
%class.vector = type { ptr }
%class.ptr_addr_map = type { %class.table2map }
%class.table2map = type { %class.core_hashtable }
%class.core_hashtable = type <{ ptr, i32, i32, i32, [4 x i8] }>
%class.ref_vector = type { %class.ref_vector_core }
%class.ref_vector_core = type { %class.ref_manager_wrapper, %class.ptr_vector }
%class.ref_manager_wrapper = type { ptr }
%class.ptr_vector = type { %class.vector.0 }
%class.vector.0 = type { ptr }
%class.state_graph = type { %class.uint_set, %class.uint_set, %class.uint_set, %class.uint_set, %class.uint_set, %class.basic_union_find, %class.u_map, %class.u_map, %class.u_map, %"struct.state_graph::state_pp" }
%class.uint_set = type { %class.svector }
%class.svector = type { %class.vector.1 }
%class.vector.1 = type { ptr }
%class.basic_union_find = type { %class.svector, %class.svector, %class.svector }
%class.u_map = type { %class.map }
%class.map = type { %class.table2map.2 }
%class.table2map.2 = type { %class.core_hashtable.3 }
%class.core_hashtable.3 = type <{ ptr, i32, i32, i32, [4 x i8] }>
%class.ptr_vector.5 = type { %class.vector.6 }
%class.vector.6 = type { ptr }
%"class.seq_util::rex" = type { ptr, ptr, i32, %class.vector.20, %class.ref_vector, %"struct.seq_util::rex::info", %"struct.seq_util::rex::info" }
%class.vector.20 = type { ptr }
%"struct.seq_util::rex::info" = type { i32, i8, i32, i32 }
%"class.smt::theory_seq" = type { %"class.smt::theory.base", %"class.seq::eq_solver_context", %class.scoped_dependency_manager, %"class.smt::theory_seq::solution_map", %class.scoped_vector, %class.scoped_vector.14, %class.scoped_vector.16, %class.scoped_vector.18, %class.scoped_vector.18, i8, i32, %class.union_find, %"class.smt::seq_offset_eq", %class.obj_ref_map, %class.obj_ref_map, ptr, %"class.smt::theory_seq::exclusion_table", %class.ref_vector, %class.obj_hashtable.33, i32, i8, %class.ref_vector, %class.ref_vector, %class.obj_hashtable.33, %class.obj_hashtable.33, %class.ref_vector, %class.obj_map.38, %class.ref_vector, %class.scoped_ptr_vector, ptr, %class.th_rewriter, %class.th_rewriter, %class.seq_rewriter, %class.seq_util, %class.arith_util, %"class.seq::skolem", %"class.smt::seq_axioms", %"class.seq::eq_solver", %"class.smt::seq_regex", %"class.smt::arith_value", %class.trail_stack, %"struct.smt::theory_seq::stats", %class.ptr_vector, %class.ptr_vector, %class.ref_vector, %class.ref_vector, %class.ref_vector, %class.ref_vector, %class.ref_pair_vector, i32, %"class.sat::literal", ptr, i8, i8, i8, [5 x i8], %class.obj_hashtable.33, %class.obj_hashtable.33, ptr, %class.obj_pair_hashtable, %class.scoped_ptr_vector.67, %class.u_map.70, %class.ptr_vector }
%"class.smt::theory.base" = type <{ ptr, i32, [4 x i8], ptr, ptr, %class.ptr_vector.5, %class.svector, i32, i8 }>
%"class.seq::eq_solver_context" = type { ptr }
%class.scoped_dependency_manager = type { [8 x i8], %"class.scoped_dependency_manager<smt::theory_seq::assumption>::config::allocator", %class.dependency_manager }
%"class.scoped_dependency_manager<smt::theory_seq::assumption>::config::allocator" = type { %class.region }
%class.region = type { ptr, ptr, ptr, ptr, ptr }
%class.dependency_manager = type { ptr, ptr, %class.ptr_vector.7 }
%class.ptr_vector.7 = type { %class.vector.8 }
%class.vector.8 = type { ptr }
%"class.smt::theory_seq::solution_map" = type { ptr, ptr, %class.svector.9, %"class.smt::theory_seq::eval_cache", %class.ref_vector, %class.ref_vector, %class.ptr_vector.7, %class.svector.11, %class.svector }
%class.svector.9 = type { %class.vector.10 }
%class.vector.10 = type { ptr }
%"class.smt::theory_seq::eval_cache" = type { %class.svector.9, %class.ref_vector }
%class.svector.11 = type { %class.vector.12 }
%class.vector.12 = type { ptr }
%class.scoped_vector = type { i32, i32, %class.svector, %class.vector.13, %class.svector, %class.svector, %class.svector, %class.svector, %class.svector }
%class.vector.13 = type { ptr }
%class.scoped_vector.14 = type { i32, i32, %class.svector, %class.vector.15, %class.svector, %class.svector, %class.svector, %class.svector, %class.svector }
%class.vector.15 = type { ptr }
%class.scoped_vector.16 = type { i32, i32, %class.svector, %class.vector.17, %class.svector, %class.svector, %class.svector, %class.svector, %class.svector }
%class.vector.17 = type { ptr }
%class.scoped_vector.18 = type { i32, i32, %class.svector, %class.vector.19, %class.svector, %class.svector, %class.svector, %class.svector, %class.svector }
%class.vector.19 = type { ptr }
%class.union_find = type { ptr, ptr, %class.svector, %class.svector, %class.svector, %"class.union_find<smt::theory_seq>::mk_var_trail" }
%"class.union_find<smt::theory_seq>::mk_var_trail" = type { %class.trail, ptr }
%class.trail = type { ptr }
%"class.smt::seq_offset_eq" = type <{ ptr, ptr, %class.seq_util, %class.arith_util, %class.obj_hashtable, %class.obj_pair_map, i32, [4 x i8] }>
%class.obj_hashtable = type { %class.core_hashtable.base.23, [4 x i8] }
%class.core_hashtable.base.23 = type <{ ptr, i32, i32, i32 }>
%class.obj_pair_map = type { %class.core_hashtable.24 }
%class.core_hashtable.24 = type <{ ptr, i32, i32, i32, [4 x i8] }>
%class.obj_ref_map = type { ptr, %class.obj_map }
%class.obj_map = type { %class.core_hashtable.26 }
%class.core_hashtable.26 = type <{ ptr, i32, i32, i32, [4 x i8] }>
%"class.smt::theory_seq::exclusion_table" = type { ptr, %class.obj_pair_hashtable, %class.ref_vector, %class.ref_vector, %class.svector }
%class.obj_map.38 = type { %class.core_hashtable.39 }
%class.core_hashtable.39 = type <{ ptr, i32, i32, i32, [4 x i8] }>
%class.scoped_ptr_vector = type { %class.ptr_vector.43 }
%class.ptr_vector.43 = type { %class.vector.44 }
%class.vector.44 = type { ptr }
%class.th_rewriter = type { ptr, %class.params_ref }
%class.params_ref = type { ptr }
%class.seq_rewriter = type <{ %class.seq_util, %class.arith_util, %class.bool_rewriter, %class.re2automaton, %"class.seq_rewriter::op_cache", %class.ref_vector, %class.ref_vector, %class.ref_vector, i8, [7 x i8] }>
%class.bool_rewriter = type { ptr, i8, i8, i8, i8, i8, i8, i32, i8, i32, i32, i8, %class.ptr_vector, %class.ptr_vector, %class.svector, %class.svector }
%class.re2automaton = type { ptr, [8 x i8], %class.seq_util, %class.scoped_ptr, %class.scoped_ptr.45, %class.scoped_ptr.46 }
%class.scoped_ptr = type { ptr }
%class.scoped_ptr.45 = type { ptr }
%class.scoped_ptr.46 = type { ptr }
%"class.seq_rewriter::op_cache" = type { i32, %class.ref_vector, %class.hashtable }
%class.hashtable = type { %class.core_hashtable.base.48, [4 x i8] }
%class.core_hashtable.base.48 = type <{ ptr, i32, i32, i32 }>
%class.seq_util = type { ptr, ptr, ptr, i32, [4 x i8], %"class.seq_util::str", %"class.seq_util::rex" }
%"class.seq_util::str" = type <{ ptr, ptr, i32, [4 x i8] }>
%class.arith_util = type { ptr, ptr }
%"class.seq::skolem" = type { ptr, ptr, %class.seq_util, %class.arith_util, %class.symbol, %class.symbol, %class.symbol, %class.symbol, %class.symbol, %class.symbol, %class.symbol, %class.symbol, %class.symbol, %class.symbol, %class.symbol, %class.symbol, %class.symbol, %class.symbol, %class.symbol, %class.symbol, %class.symbol, %class.symbol, %class.symbol, %class.symbol, %class.symbol }
%"class.smt::seq_axioms" = type { ptr, ptr, ptr, %class.arith_util, %class.seq_util, %"class.seq::skolem", %"class.seq::axioms", i8, %"class.std::function.59", %"class.std::function.61" }
%"class.seq::axioms" = type { ptr, ptr, %class.arith_util, %class.seq_util, %"class.seq::skolem", %class.ref_vector, %class.ref_vector, %class.obj_map.49, %"class.std::function", %"class.std::function.54", %"class.std::function.57" }
%class.obj_map.49 = type { %class.core_hashtable.50 }
%class.core_hashtable.50 = type <{ ptr, i32, i32, i32, [4 x i8] }>
%"class.std::function" = type { %"class.std::_Function_base", ptr }
%"class.std::_Function_base" = type { %"union.std::_Any_data", ptr }
%"union.std::_Any_data" = type { %"union.std::_Nocopy_types" }
%"union.std::_Nocopy_types" = type { { i64, i64 } }
%"class.std::function.54" = type { %"class.std::_Function_base", ptr }
%"class.std::function.57" = type { %"class.std::_Function_base", ptr }
%"class.std::function.59" = type { %"class.std::_Function_base", ptr }
%"class.std::function.61" = type { %"class.std::_Function_base", ptr }
%"class.seq::eq_solver" = type { ptr, ptr, ptr, %class.arith_util, %class.seq_util, %class.ref_vector, %class.ptr_vector }
%"class.smt::arith_value" = type { ptr, ptr, %class.arith_util, %class.bv_util, ptr, ptr, ptr, ptr }
%class.bv_util = type { %class.bv_recognizers, ptr, ptr }
%class.bv_recognizers = type { i32 }
%class.trail_stack = type { %class.ptr_vector.63, %class.svector, %class.region }
%class.ptr_vector.63 = type { %class.vector.64 }
%class.vector.64 = type { ptr }
%"struct.smt::theory_seq::stats" = type { i32, i32, i32, i32, i32, i32, i32, i32, i32, i32, i32, i32, i32 }
%class.ref_pair_vector = type { %class.ref_pair_vector_core }
%class.ref_pair_vector_core = type { %class.ref_manager_wrapper, %class.svector.65 }
%class.svector.65 = type { %class.vector.66 }
%class.vector.66 = type { ptr }
%class.obj_hashtable.33 = type { %class.core_hashtable.base.36, [4 x i8] }
%class.core_hashtable.base.36 = type <{ ptr, i32, i32, i32 }>
%class.obj_pair_hashtable = type { %class.core_hashtable.base.32, [4 x i8] }
%class.core_hashtable.base.32 = type <{ ptr, i32, i32, i32 }>
%class.scoped_ptr_vector.67 = type { %class.ptr_vector.68 }
%class.ptr_vector.68 = type { %class.vector.69 }
%class.vector.69 = type { ptr }
%class.u_map.70 = type { %class.map.71 }
%class.map.71 = type { %class.table2map.72 }
%class.table2map.72 = type { %class.core_hashtable.73 }
%class.core_hashtable.73 = type <{ ptr, i32, i32, i32, [4 x i8] }>
%class.obj_ref = type { ptr, ptr }

; Function Attrs: mustprogress uwtable
define hidden void @_ZN3smt9seq_regex7rewriteER7obj_refI4expr11ast_managerE(ptr noundef nonnull align 8 dereferenceable(228) %0, ptr noundef nonnull align 8 dereferenceable(16) %1) #6 align 2 {
  %3 = alloca ptr, align 8
  %4 = alloca ptr, align 8
  store ptr %0, ptr %3, align 8, !tbaa !28
  store ptr %1, ptr %4, align 8, !tbaa !96
  %5 = load ptr, ptr %3, align 8
  %6 = getelementptr inbounds nuw %"class.smt::seq_regex", ptr %5, i32 0, i32 0
  %7 = load ptr, ptr %6, align 8, !tbaa !95
  %8 = getelementptr inbounds nuw %"class.smt::theory_seq", ptr %7, i32 0, i32 30
  %9 = load ptr, ptr %4, align 8, !tbaa !96
  call void @_ZN11th_rewriterclER7obj_refI4expr11ast_managerE(ptr noundef nonnull align 8 dereferenceable(16) %8, ptr noundef nonnull align 8 dereferenceable(16) %9)
  ret void
}

; Function Attrs: mustprogress nounwind uwtable
define hidden noundef nonnull align 8 dereferenceable(497) ptr @_ZN3smt9seq_regex6seq_rwEv(ptr noundef nonnull align 8 dereferenceable(228) %0) #4 align 2 {
  %2 = alloca ptr, align 8
  store ptr %0, ptr %2, align 8, !tbaa !28
  %3 = load ptr, ptr %2, align 8
  %4 = getelementptr inbounds nuw %"class.smt::seq_regex", ptr %3, i32 0, i32 0
  %5 = load ptr, ptr %4, align 8, !tbaa !95
  %6 = getelementptr inbounds nuw %"class.smt::theory_seq", ptr %5, i32 0, i32 32
  ret ptr %6
}

; Function Attrs: mustprogress uwtable
define hidden void @_ZN3smt9seq_regex19is_nullable_wrapperEP4expr(ptr dead_on_unwind noalias writable sret(%class.obj_ref) align 8 %0, ptr noundef nonnull align 8 dereferenceable(228) %1, ptr noundef %2) #6 align 2 personality ptr @__gxx_personality_v0 {
  %4 = alloca ptr, align 8
  %5 = alloca ptr, align 8
  %6 = alloca ptr, align 8
  %7 = alloca i1, align 1
  %8 = alloca ptr, align 8
  %9 = alloca i32, align 4
  store ptr %0, ptr %4, align 8
  store ptr %1, ptr %5, align 8, !tbaa !28
  store ptr %2, ptr %6, align 8, !tbaa !82
  %10 = load ptr, ptr %5, align 8
  store i1 false, ptr %7, align 1
  %11 = call noundef nonnull align 8 dereferenceable(497) ptr @_ZN3smt9seq_regex6seq_rwEv(ptr noundef nonnull align 8 dereferenceable(228) %10)
  %12 = load ptr, ptr %6, align 8, !tbaa !82
  call void @_ZN12seq_rewriter11is_nullableEP4expr(ptr dead_on_unwind writable sret(%class.obj_ref) align 8 %0, ptr noundef nonnull align 8 dereferenceable(497) %11, ptr noundef %12)
  invoke void @_ZN3smt9seq_regex7rewriteER7obj_refI4expr11ast_managerE(ptr noundef nonnull align 8 dereferenceable(228) %10, ptr noundef nonnull align 8 dereferenceable(16) %0)
          to label %13 unwind label %15

13:                                               ; preds = %3
  store i1 true, ptr %7, align 1
  %14 = load i1, ptr %7, align 1
  br i1 %14, label %20, label %19

15:                                               ; preds = %3
  %16 = landingpad { ptr, i32 }
          cleanup
  %17 = extractvalue { ptr, i32 } %16, 0
  store ptr %17, ptr %8, align 8
  %18 = extractvalue { ptr, i32 } %16, 1
  store i32 %18, ptr %9, align 4
  call void @_ZN7obj_refI4expr11ast_managerED2Ev(ptr noundef nonnull align 8 dereferenceable(16) %0) #3
  br label %21

19:                                               ; preds = %13
  call void @_ZN7obj_refI4expr11ast_managerED2Ev(ptr noundef nonnull align 8 dereferenceable(16) %0) #3
  br label %20

20:                                               ; preds = %19, %13
  ret void

21:                                               ; preds = %15
  %22 = load ptr, ptr %8, align 8
  %23 = load i32, ptr %9, align 4
  %24 = insertvalue { ptr, i32 } poison, ptr %22, 0
  %25 = insertvalue { ptr, i32 } %24, i32 %23, 1
  resume { ptr, i32 } %25
}