; Function Attrs: mustprogress uwtable
define hidden void @_ZN3smt9seq_regex19is_nullable_wrapperEP4expr(ptr dead_on_unwind noalias writable sret(%class.obj_ref) align 8 %0, ptr noundef nonnull readonly align 8 captures(none) dereferenceable(228) %1, ptr noundef %2) local_unnamed_addr #4 align 2 personality ptr @__gxx_personality_v0 {
  %4 = load ptr, ptr %1, align 8, !tbaa !59
  %5 = getelementptr inbounds nuw i8, ptr %4, i64 1224
  tail call void @_ZN12seq_rewriter11is_nullableEP4expr(ptr dead_on_unwind writable sret(%class.obj_ref) align 8 %0, ptr noundef nonnull align 8 dereferenceable(497) %5, ptr noundef %2)
  %6 = load ptr, ptr %1, align 8, !tbaa !59
  %7 = getelementptr inbounds nuw i8, ptr %6, i64 1192
  invoke void @_ZN11th_rewriterclER7obj_refI4expr11ast_managerE(ptr noundef nonnull align 8 dereferenceable(16) %7, ptr noundef nonnull align 8 dereferenceable(16) %0)
          to label %_ZN3smt9seq_regex7rewriteER7obj_refI4expr11ast_managerE.exit unwind label %8

8:                                                ; preds = %3
  %9 = landingpad { ptr, i32 }
          cleanup
  tail call void @_ZN7obj_refI4expr11ast_managerED2Ev(ptr noundef nonnull align 8 dereferenceable(16) %0) #24
  resume { ptr, i32 } %9

_ZN3smt9seq_regex7rewriteER7obj_refI4expr11ast_managerE.exit: ; preds = %3
  ret void
}